target datalayout = "e-m:e-p270:32:32-p271:32:32-p272:64:64-i64:64-i128:128-f80:128-n8:16:32:64-S128"
target triple = "x86_64-pc-linux-gnu"

%"struct.duckdb_yyjson::yyjson_alc" = type { ptr, ptr, ptr, ptr }
%"struct.duckdb_yyjson::pool_ctx" = type { i64, ptr }
%"struct.duckdb_yyjson::pool_chunk" = type { i64, ptr }

@_ZN13duckdb_yyjsonL15YYJSON_NULL_ALCE = internal constant %"struct.duckdb_yyjson::yyjson_alc" { ptr @_ZN13duckdb_yyjsonL11null_mallocEPvm, ptr @_ZN13duckdb_yyjsonL12null_reallocEPvS0_mm, ptr @_ZN13duckdb_yyjsonL9null_freeEPvS0_, ptr null }, align 8

; Function Attrs: alwaysinline mustprogress nounwind uwtable
define internal noundef zeroext i1 @_ZN13duckdb_yyjsonL12size_is_pow2Em(i64 noundef %0) #7 {
  %2 = alloca i64, align 8
  store i64 %0, ptr %2, align 8, !tbaa !9
  %3 = load i64, ptr %2, align 8, !tbaa !9
  %4 = load i64, ptr %2, align 8, !tbaa !9
  %5 = sub i64 %4, 1
  %6 = and i64 %3, %5
  %7 = icmp eq i64 %6, 0
  ret i1 %7
}

; Function Attrs: alwaysinline mustprogress nounwind uwtable
define internal noundef i64 @_ZN13duckdb_yyjsonL13size_align_upEmm(i64 noundef %0, i64 noundef %1) #7 {
  %3 = alloca i64, align 8
  %4 = alloca i64, align 8
  %5 = alloca i64, align 8
  store i64 %0, ptr %4, align 8, !tbaa !9
  store i64 %1, ptr %5, align 8, !tbaa !9
  %6 = load i64, ptr %5, align 8, !tbaa !9
  %7 = call noundef zeroext i1 @_ZN13duckdb_yyjsonL12size_is_pow2Em(i64 noundef %6)
  br i1 %7, label %8, label %17

8:                                                ; preds = %2
  %9 = load i64, ptr %4, align 8, !tbaa !9
  %10 = load i64, ptr %5, align 8, !tbaa !9
  %11 = sub i64 %10, 1
  %12 = add i64 %9, %11
  %13 = load i64, ptr %5, align 8, !tbaa !9
  %14 = sub i64 %13, 1
  %15 = xor i64 %14, -1
  %16 = and i64 %12, %15
  store i64 %16, ptr %3, align 8
  br label %29

17:                                               ; preds = %2
  %18 = load i64, ptr %4, align 8, !tbaa !9
  %19 = load i64, ptr %5, align 8, !tbaa !9
  %20 = add i64 %18, %19
  %21 = load i64, ptr %4, align 8, !tbaa !9
  %22 = load i64, ptr %5, align 8, !tbaa !9
  %23 = add i64 %21, %22
  %24 = sub i64 %23, 1
  %25 = load i64, ptr %5, align 8, !tbaa !9
  %26 = urem i64 %24, %25
  %27 = sub i64 %20, %26
  %28 = sub i64 %27, 1
  store i64 %28, ptr %3, align 8
  br label %29

29:                                               ; preds = %17, %8
  %30 = load i64, ptr %3, align 8
  ret i64 %30
}

; Function Attrs: alwaysinline mustprogress uwtable
define internal noundef i64 @_ZN13duckdb_yyjsonL15size_align_downEmm(i64 noundef %0, i64 noundef %1) #5 {
  %3 = alloca i64, align 8
  %4 = alloca i64, align 8
  %5 = alloca i64, align 8
  store i64 %0, ptr %4, align 8, !tbaa !9
  store i64 %1, ptr %5, align 8, !tbaa !9
  %6 = load i64, ptr %5, align 8, !tbaa !9
  %7 = call noundef zeroext i1 @_ZN13duckdb_yyjsonL12size_is_pow2Em(i64 noundef %6)
  br i1 %7, label %8, label %14

8:                                                ; preds = %2
  %9 = load i64, ptr %4, align 8, !tbaa !9
  %10 = load i64, ptr %5, align 8, !tbaa !9
  %11 = sub i64 %10, 1
  %12 = xor i64 %11, -1
  %13 = and i64 %9, %12
  store i64 %13, ptr %3, align 8
  br label %20

14:                                               ; preds = %2
  %15 = load i64, ptr %4, align 8, !tbaa !9
  %16 = load i64, ptr %4, align 8, !tbaa !9
  %17 = load i64, ptr %5, align 8, !tbaa !9
  %18 = urem i64 %16, %17
  %19 = sub i64 %15, %18
  store i64 %19, ptr %3, align 8
  br label %20

20:                                               ; preds = %14, %8
  %21 = load i64, ptr %3, align 8
  ret i64 %21
}

; Function Attrs: alwaysinline mustprogress uwtable
define internal noundef ptr @_ZN13duckdb_yyjsonL12mem_align_upEPvm(ptr noundef %0, i64 noundef %1) #5 {
  %3 = alloca ptr, align 8
  %4 = alloca i64, align 8
  %5 = alloca i64, align 8
  store ptr %0, ptr %3, align 8, !tbaa !8
  store i64 %1, ptr %4, align 8, !tbaa !9
  call void @llvm.lifetime.start.p0(i64 8, ptr %5) #15
  call void @llvm.memcpy.p0.p0.i64(ptr align 8 %5, ptr align 8 %3, i64 8, i1 false)
  %6 = load i64, ptr %5, align 8, !tbaa !9
  %7 = load i64, ptr %4, align 8, !tbaa !9
  %8 = call noundef i64 @_ZN13duckdb_yyjsonL13size_align_upEmm(i64 noundef %6, i64 noundef %7)
  store i64 %8, ptr %5, align 8, !tbaa !9
  call void @llvm.memcpy.p0.p0.i64(ptr align 8 %3, ptr align 8 %5, i64 8, i1 false)
  %9 = load ptr, ptr %3, align 8, !tbaa !8
  call void @llvm.lifetime.end.p0(i64 8, ptr %5) #15
  ret ptr %9
}

; Function Attrs: mustprogress uwtable
define noundef zeroext i1 @_ZN13duckdb_yyjson20yyjson_alc_pool_initEPNS_10yyjson_alcEPvm(ptr noundef %0, ptr noundef %1, i64 noundef %2) #1 {
  %4 = alloca i1, align 1
  %5 = alloca ptr, align 8
  %6 = alloca ptr, align 8
  %7 = alloca i64, align 8
  %8 = alloca ptr, align 8
  %9 = alloca ptr, align 8
  %10 = alloca i32, align 4
  store ptr %0, ptr %5, align 8, !tbaa !3
  store ptr %1, ptr %6, align 8, !tbaa !8
  store i64 %2, ptr %7, align 8, !tbaa !9
  call void @llvm.lifetime.start.p0(i64 8, ptr %8) #15
  call void @llvm.lifetime.start.p0(i64 8, ptr %9) #15
  %11 = load ptr, ptr %5, align 8, !tbaa !3
  %12 = icmp ne ptr %11, null
  %13 = xor i1 %12, true
  %14 = xor i1 %13, true
  %15 = xor i1 %14, true
  %16 = zext i1 %15 to i64
  %17 = call i64 @llvm.expect.i64(i64 %16, i64 0)
  %18 = icmp ne i64 %17, 0
  br i1 %18, label %19, label %20

19:                                               ; preds = %3
  store i1 false, ptr %4, align 1
  store i32 1, ptr %10, align 4
  br label %70

20:                                               ; preds = %3
  %21 = load ptr, ptr %5, align 8, !tbaa !3
  call void @llvm.memcpy.p0.p0.i64(ptr align 8 %21, ptr align 8 @_ZN13duckdb_yyjsonL15YYJSON_NULL_ALCE, i64 32, i1 false), !tbaa.struct !11
  %22 = load i64, ptr %7, align 8, !tbaa !9
  %23 = icmp ult i64 %22, 64
  br i1 %23, label %24, label %25

24:                                               ; preds = %20
  store i1 false, ptr %4, align 1
  store i32 1, ptr %10, align 4
  br label %70

25:                                               ; preds = %20
  %26 = load ptr, ptr %6, align 8, !tbaa !8
  %27 = call noundef ptr @_ZN13duckdb_yyjsonL12mem_align_upEPvm(ptr noundef %26, i64 noundef 16)
  store ptr %27, ptr %9, align 8, !tbaa !12
  %28 = load ptr, ptr %9, align 8, !tbaa !12
  %29 = icmp ne ptr %28, null
  %30 = xor i1 %29, true
  %31 = xor i1 %30, true
  %32 = xor i1 %31, true
  %33 = zext i1 %32 to i64
  %34 = call i64 @llvm.expect.i64(i64 %33, i64 0)
  %35 = icmp ne i64 %34, 0
  br i1 %35, label %36, label %37

36:                                               ; preds = %25
  store i1 false, ptr %4, align 1
  store i32 1, ptr %10, align 4
  br label %70

37:                                               ; preds = %25
  %38 = load ptr, ptr %9, align 8, !tbaa !12
  %39 = load ptr, ptr %6, align 8, !tbaa !8
  %40 = ptrtoint ptr %38 to i64
  %41 = ptrtoint ptr %39 to i64
  %42 = sub i64 %40, %41
  %43 = load i64, ptr %7, align 8, !tbaa !9
  %44 = sub i64 %43, %42
  store i64 %44, ptr %7, align 8, !tbaa !9
  %45 = load i64, ptr %7, align 8, !tbaa !9
  %46 = call noundef i64 @_ZN13duckdb_yyjsonL15size_align_downEmm(i64 noundef %45, i64 noundef 16)
  store i64 %46, ptr %7, align 8, !tbaa !9
  %47 = load ptr, ptr %9, align 8, !tbaa !12
  %48 = getelementptr inbounds %"struct.duckdb_yyjson::pool_ctx", ptr %47, i64 1
  store ptr %48, ptr %8, align 8, !tbaa !14
  %49 = load i64, ptr %7, align 8, !tbaa !9
  %50 = sub i64 %49, 16
  %51 = load ptr, ptr %8, align 8, !tbaa !14
  %52 = getelementptr inbounds nuw %"struct.duckdb_yyjson::pool_chunk", ptr %51, i32 0, i32 0
  store i64 %50, ptr %52, align 8, !tbaa !16
  %53 = load ptr, ptr %8, align 8, !tbaa !14
  %54 = getelementptr inbounds nuw %"struct.duckdb_yyjson::pool_chunk", ptr %53, i32 0, i32 1
  store ptr null, ptr %54, align 8, !tbaa !18
  %55 = load i64, ptr %7, align 8, !tbaa !9
  %56 = load ptr, ptr %9, align 8, !tbaa !12
  %57 = getelementptr inbounds nuw %"struct.duckdb_yyjson::pool_ctx", ptr %56, i32 0, i32 0
  store i64 %55, ptr %57, align 8, !tbaa !19
  %58 = load ptr, ptr %8, align 8, !tbaa !14
  %59 = load ptr, ptr %9, align 8, !tbaa !12
  %60 = getelementptr inbounds nuw %"struct.duckdb_yyjson::pool_ctx", ptr %59, i32 0, i32 1
  store ptr %58, ptr %60, align 8, !tbaa !21
  %61 = load ptr, ptr %5, align 8, !tbaa !3
  %62 = getelementptr inbounds nuw %"struct.duckdb_yyjson::yyjson_alc", ptr %61, i32 0, i32 0
  store ptr @_ZN13duckdb_yyjsonL11pool_mallocEPvm, ptr %62, align 8, !tbaa !22
  %63 = load ptr, ptr %5, align 8, !tbaa !3
  %64 = getelementptr inbounds nuw %"struct.duckdb_yyjson::yyjson_alc", ptr %63, i32 0, i32 1
  store ptr @_ZN13duckdb_yyjsonL12pool_reallocEPvS0_mm, ptr %64, align 8, !tbaa !24
  %65 = load ptr, ptr %5, align 8, !tbaa !3
  %66 = getelementptr inbounds nuw %"struct.duckdb_yyjson::yyjson_alc", ptr %65, i32 0, i32 2
  store ptr @_ZN13duckdb_yyjsonL9pool_freeEPvS0_, ptr %66, align 8, !tbaa !25
  %67 = load ptr, ptr %9, align 8, !tbaa !12
  %68 = load ptr, ptr %5, align 8, !tbaa !3
  %69 = getelementptr inbounds nuw %"struct.duckdb_yyjson::yyjson_alc", ptr %68, i32 0, i32 3
  store ptr %67, ptr %69, align 8, !tbaa !26
  store i1 true, ptr %4, align 1
  store i32 1, ptr %10, align 4
  br label %70

70:                                               ; preds = %37, %36, %24, %19
  call void @llvm.lifetime.end.p0(i64 8, ptr %9) #15
  call void @llvm.lifetime.end.p0(i64 8, ptr %8) #15
  %71 = load i1, ptr %4, align 1
  ret i1 %71
}