; Function Attrs: mustprogress nofree norecurse nosync nounwind willreturn memory(write, argmem: readwrite, inaccessiblemem: none) uwtable
define noundef zeroext i1 @_ZN13duckdb_yyjson20yyjson_alc_pool_initEPNS_10yyjson_alcEPvm(ptr noundef writeonly captures(address_is_null) %0, ptr noundef %1, i64 noundef %2) local_unnamed_addr #1 {
  %.not = icmp eq ptr %0, null
  br i1 %.not, label %19, label %4, !prof !3

4:                                                ; preds = %3
  tail call void @llvm.memcpy.p0.p0.i64(ptr noundef nonnull align 8 dereferenceable(32) %0, ptr noundef nonnull align 8 dereferenceable(32) @_ZN13duckdb_yyjsonL15YYJSON_NULL_ALCE, i64 32, i1 false), !tbaa.struct !4
  %5 = icmp ult i64 %2, 64
  br i1 %5, label %19, label %_ZN13duckdb_yyjsonL13size_align_upEmm.exit

_ZN13duckdb_yyjsonL13size_align_upEmm.exit:       ; preds = %4
  %6 = ptrtoint ptr %1 to i64
  %7 = add i64 %6, 15
  %8 = and i64 %7, -16
  %.not23 = icmp eq i64 %8, 0
  br i1 %.not23, label %19, label %9, !prof !3

9:                                                ; preds = %_ZN13duckdb_yyjsonL13size_align_upEmm.exit
  %10 = inttoptr i64 %8 to ptr
  %.neg = add i64 %2, %6
  %11 = sub i64 %.neg, %8
  %.0.i = and i64 %11, -16
  %12 = getelementptr inbounds nuw i8, ptr %10, i64 16
  %13 = add i64 %.0.i, -16
  store i64 %13, ptr %12, align 16, !tbaa !9
  %14 = getelementptr inbounds nuw i8, ptr %10, i64 24
  store ptr null, ptr %14, align 8, !tbaa !13
  store i64 %.0.i, ptr %10, align 16, !tbaa !14
  %15 = getelementptr inbounds nuw i8, ptr %10, i64 8
  store ptr %12, ptr %15, align 8, !tbaa !16
  store ptr @_ZN13duckdb_yyjsonL11pool_mallocEPvm, ptr %0, align 8, !tbaa !17
  %16 = getelementptr inbounds nuw i8, ptr %0, i64 8
  store ptr @_ZN13duckdb_yyjsonL12pool_reallocEPvS0_mm, ptr %16, align 8, !tbaa !19
  %17 = getelementptr inbounds nuw i8, ptr %0, i64 16
  store ptr @_ZN13duckdb_yyjsonL9pool_freeEPvS0_, ptr %17, align 8, !tbaa !20
  %18 = getelementptr inbounds nuw i8, ptr %0, i64 24
  store ptr %10, ptr %18, align 8, !tbaa !21
  br label %19

19:                                               ; preds = %_ZN13duckdb_yyjsonL13size_align_upEmm.exit, %4, %3, %9
  %.0 = phi i1 [ true, %9 ], [ false, %3 ], [ false, %4 ], [ false, %_ZN13duckdb_yyjsonL13size_align_upEmm.exit ]
  ret i1 %.0
}